; Function Attrs: mustprogress nounwind uwtable
define dso_local noundef zeroext i1 @_ZN5clang4ento18ConditionBRVisitor21isPieceMessageGenericEPKNS0_19PathDiagnosticPieceE(ptr noundef %0) local_unnamed_addr #0 align 2 {
  %2 = getelementptr inbounds nuw i8, ptr %0, i64 16
  %3 = tail call noundef ptr @_ZNKSt7__cxx1112basic_stringIcSt11char_traitsIcESaIcEE4dataEv(ptr noundef nonnull align 8 dereferenceable(32) %2) #22
  %4 = tail call noundef i64 @_ZNKSt7__cxx1112basic_stringIcSt11char_traitsIcESaIcEE6lengthEv(ptr noundef nonnull align 8 dereferenceable(32) %2) #22
  %.not.i = icmp eq i64 %4, 30
  br i1 %.not.i, label %_ZN4llvmeqENS_9StringRefES0_.exit, label %_ZN4llvmeqENS_9StringRefES0_.exit.thread

_ZN4llvmeqENS_9StringRefES0_.exit:                ; preds = %1
  %bcmp.i = tail call i32 @bcmp(ptr noundef nonnull dereferenceable(30) %3, ptr noundef nonnull dereferenceable(30) @.str.37, i64 30)
  %5 = icmp eq i32 %bcmp.i, 0
  br i1 %5, label %_ZN4llvmeqENS_9StringRefES0_.exit13, label %_ZN4llvmeqENS_9StringRefES0_.exit.thread

_ZN4llvmeqENS_9StringRefES0_.exit.thread:         ; preds = %1, %_ZN4llvmeqENS_9StringRefES0_.exit
  %6 = tail call noundef ptr @_ZNKSt7__cxx1112basic_stringIcSt11char_traitsIcESaIcEE4dataEv(ptr noundef nonnull align 8 dereferenceable(32) %2) #22
  %7 = tail call noundef i64 @_ZNKSt7__cxx1112basic_stringIcSt11char_traitsIcESaIcEE6lengthEv(ptr noundef nonnull align 8 dereferenceable(32) %2) #22
  %.not.i10 = icmp eq i64 %7, 31
  br i1 %.not.i10, label %8, label %_ZN4llvmeqENS_9StringRefES0_.exit13

8:                                                ; preds = %_ZN4llvmeqENS_9StringRefES0_.exit.thread
  %bcmp.i12 = tail call i32 @bcmp(ptr noundef nonnull dereferenceable(31) %6, ptr noundef nonnull dereferenceable(31) @.str.39, i64 31)
  %9 = icmp eq i32 %bcmp.i12, 0
  br label %_ZN4llvmeqENS_9StringRefES0_.exit13

_ZN4llvmeqENS_9StringRefES0_.exit13:              ; preds = %8, %_ZN4llvmeqENS_9StringRefES0_.exit.thread, %_ZN4llvmeqENS_9StringRefES0_.exit
  %10 = phi i1 [ true, %_ZN4llvmeqENS_9StringRefES0_.exit ], [ %9, %8 ], [ false, %_ZN4llvmeqENS_9StringRefES0_.exit.thread ]
  ret i1 %10
}